target datalayout = "e-m:e-p270:32:32-p271:32:32-p272:64:64-i64:64-i128:128-f80:128-n8:16:32:64-S128"
target triple = "x86_64-pc-linux-gnu"

%struct.Nwk_Man_t_ = type { ptr, ptr, ptr, ptr, ptr, [5 x i32], i32, ptr, ptr, ptr, ptr, ptr, i32, i32, i32, i32, i32 }
%struct.Nwk_Obj_t_ = type { ptr, ptr, ptr, %union.anon, i32, i32, i32, i32, float, float, float, i32, i32, i32, ptr }
%union.anon = type { ptr }

@.str.32 = private unnamed_addr constant [40 x i8] c"Reducing node %d fanins from %d to %d.\0A\00", align 1

; Function Attrs: inlinehint nounwind uwtable
define internal i32 @Nwk_ObjFanoutNum(ptr noundef %0) #2 {
  %2 = alloca ptr, align 8
  store ptr %0, ptr %2, align 8, !tbaa !19
  %3 = load ptr, ptr %2, align 8, !tbaa !19
  %4 = getelementptr inbounds nuw %struct.Nwk_Obj_t_, ptr %3, i32 0, i32 12
  %5 = load i32, ptr %4, align 8, !tbaa !49
  ret i32 %5
}

; Function Attrs: inlinehint nounwind uwtable
define internal i32 @Nwk_ObjFaninNum(ptr noundef %0) #2 {
  %2 = alloca ptr, align 8
  store ptr %0, ptr %2, align 8, !tbaa !19
  %3 = load ptr, ptr %2, align 8, !tbaa !19
  %4 = getelementptr inbounds nuw %struct.Nwk_Obj_t_, ptr %3, i32 0, i32 11
  %5 = load i32, ptr %4, align 4, !tbaa !34
  ret i32 %5
}

; Function Attrs: inlinehint nounwind uwtable
define internal ptr @Hop_Regular(ptr noundef %0) #2 {
  %2 = alloca ptr, align 8
  store ptr %0, ptr %2, align 8, !tbaa !71
  %3 = load ptr, ptr %2, align 8, !tbaa !71
  %4 = ptrtoint ptr %3 to i64
  %5 = and i64 %4, -2
  %6 = inttoptr i64 %5 to ptr
  ret ptr %6
}

; Function Attrs: nounwind uwtable
define i32 @Nwk_ManMinimumBaseNode(ptr noundef %0, ptr noundef %1, i32 noundef %2) #0 {
  %4 = alloca i32, align 4
  %5 = alloca ptr, align 8
  %6 = alloca ptr, align 8
  %7 = alloca i32, align 4
  %8 = alloca ptr, align 8
  %9 = alloca ptr, align 8
  %10 = alloca ptr, align 8
  %11 = alloca ptr, align 8
  %12 = alloca i32, align 4
  %13 = alloca i32, align 4
  %14 = alloca i32, align 4
  %15 = alloca i32, align 4
  %16 = alloca i32, align 4
  store ptr %0, ptr %5, align 8, !tbaa !19
  store ptr %1, ptr %6, align 8, !tbaa !58
  store i32 %2, ptr %7, align 4, !tbaa !17
  call void @llvm.lifetime.start.p0(i64 8, ptr %8) #9
  call void @llvm.lifetime.start.p0(i64 8, ptr %9) #9
  call void @llvm.lifetime.start.p0(i64 8, ptr %10) #9
  call void @llvm.lifetime.start.p0(i64 8, ptr %11) #9
  %17 = load ptr, ptr %5, align 8, !tbaa !19
  %18 = getelementptr inbounds nuw %struct.Nwk_Obj_t_, ptr %17, i32 0, i32 0
  %19 = load ptr, ptr %18, align 8, !tbaa !38
  store ptr %19, ptr %11, align 8, !tbaa !3
  call void @llvm.lifetime.start.p0(i64 4, ptr %12) #9
  call void @llvm.lifetime.start.p0(i64 4, ptr %13) #9
  call void @llvm.lifetime.start.p0(i64 4, ptr %14) #9
  call void @llvm.lifetime.start.p0(i64 4, ptr %15) #9
  store i32 0, ptr %15, align 4, !tbaa !17
  %20 = load ptr, ptr %11, align 8, !tbaa !3
  %21 = getelementptr inbounds nuw %struct.Nwk_Man_t_, ptr %20, i32 0, i32 7
  %22 = load ptr, ptr %21, align 8, !tbaa !60
  %23 = load ptr, ptr %5, align 8, !tbaa !19
  %24 = getelementptr inbounds nuw %struct.Nwk_Obj_t_, ptr %23, i32 0, i32 1
  %25 = load ptr, ptr %24, align 8, !tbaa !42
  %26 = call ptr @Hop_Regular(ptr noundef %25)
  %27 = load ptr, ptr %5, align 8, !tbaa !19
  %28 = call i32 @Nwk_ObjFaninNum(ptr noundef %27)
  %29 = load ptr, ptr %6, align 8, !tbaa !58
  %30 = call ptr @Hop_ManConvertAigToTruth(ptr noundef %22, ptr noundef %26, i32 noundef %28, ptr noundef %29, i32 noundef 0)
  store ptr %30, ptr %8, align 8, !tbaa !61
  %31 = load ptr, ptr %8, align 8, !tbaa !61
  %32 = load ptr, ptr %5, align 8, !tbaa !19
  %33 = call i32 @Nwk_ObjFaninNum(ptr noundef %32)
  %34 = call i32 @Kit_TruthSupportSize(ptr noundef %31, i32 noundef %33)
  store i32 %34, ptr %13, align 4, !tbaa !17
  %35 = load i32, ptr %13, align 4, !tbaa !17
  %36 = load ptr, ptr %5, align 8, !tbaa !19
  %37 = call i32 @Nwk_ObjFaninNum(ptr noundef %36)
  %38 = icmp eq i32 %35, %37
  br i1 %38, label %39, label %40

39:                                               ; preds = %3
  store i32 0, ptr %4, align 4
  store i32 1, ptr %16, align 4
  br label %109

40:                                               ; preds = %3
  %41 = load i32, ptr %15, align 4, !tbaa !17
  %42 = add nsw i32 %41, 1
  store i32 %42, ptr %15, align 4, !tbaa !17
  %43 = load ptr, ptr %8, align 8, !tbaa !61
  %44 = load ptr, ptr %5, align 8, !tbaa !19
  %45 = call i32 @Nwk_ObjFaninNum(ptr noundef %44)
  %46 = call i32 @Kit_TruthSupport(ptr noundef %43, i32 noundef %45)
  store i32 %46, ptr %12, align 4, !tbaa !17
  %47 = load ptr, ptr %11, align 8, !tbaa !3
  %48 = load i32, ptr %13, align 4, !tbaa !17
  %49 = load ptr, ptr %5, align 8, !tbaa !19
  %50 = call i32 @Nwk_ObjFanoutNum(ptr noundef %49)
  %51 = call ptr @Nwk_ManCreateNode(ptr noundef %47, i32 noundef %48, i32 noundef %50)
  store ptr %51, ptr %10, align 8, !tbaa !19
  store i32 0, ptr %14, align 4, !tbaa !17
  br label %52

52:                                               ; preds = %79, %40
  %53 = load i32, ptr %14, align 4, !tbaa !17
  %54 = load ptr, ptr %5, align 8, !tbaa !19
  %55 = getelementptr inbounds nuw %struct.Nwk_Obj_t_, ptr %54, i32 0, i32 11
  %56 = load i32, ptr %55, align 4, !tbaa !34
  %57 = icmp slt i32 %53, %56
  br i1 %57, label %58, label %67

58:                                               ; preds = %52
  %59 = load ptr, ptr %5, align 8, !tbaa !19
  %60 = getelementptr inbounds nuw %struct.Nwk_Obj_t_, ptr %59, i32 0, i32 14
  %61 = load ptr, ptr %60, align 8, !tbaa !47
  %62 = load i32, ptr %14, align 4, !tbaa !17
  %63 = sext i32 %62 to i64
  %64 = getelementptr inbounds ptr, ptr %61, i64 %63
  %65 = load ptr, ptr %64, align 8, !tbaa !19
  store ptr %65, ptr %9, align 8, !tbaa !19
  %66 = icmp ne ptr %65, null
  br label %67

67:                                               ; preds = %58, %52
  %68 = phi i1 [ false, %52 ], [ %66, %58 ]
  br i1 %68, label %69, label %82

69:                                               ; preds = %67
  %70 = load i32, ptr %12, align 4, !tbaa !17
  %71 = load i32, ptr %14, align 4, !tbaa !17
  %72 = shl i32 1, %71
  %73 = and i32 %70, %72
  %74 = icmp ne i32 %73, 0
  br i1 %74, label %75, label %78

75:                                               ; preds = %69
  %76 = load ptr, ptr %10, align 8, !tbaa !19
  %77 = load ptr, ptr %9, align 8, !tbaa !19
  call void @Nwk_ObjAddFanin(ptr noundef %76, ptr noundef %77)
  br label %78

78:                                               ; preds = %75, %69
  br label %79

79:                                               ; preds = %78
  %80 = load i32, ptr %14, align 4, !tbaa !17
  %81 = add nsw i32 %80, 1
  store i32 %81, ptr %14, align 4, !tbaa !17
  br label %52, !llvm.loop !79

82:                                               ; preds = %67
  %83 = load ptr, ptr %11, align 8, !tbaa !3
  %84 = getelementptr inbounds nuw %struct.Nwk_Man_t_, ptr %83, i32 0, i32 7
  %85 = load ptr, ptr %84, align 8, !tbaa !60
  %86 = load ptr, ptr %5, align 8, !tbaa !19
  %87 = getelementptr inbounds nuw %struct.Nwk_Obj_t_, ptr %86, i32 0, i32 1
  %88 = load ptr, ptr %87, align 8, !tbaa !42
  %89 = load i32, ptr %12, align 4, !tbaa !17
  %90 = load ptr, ptr %5, align 8, !tbaa !19
  %91 = call i32 @Nwk_ObjFaninNum(ptr noundef %90)
  %92 = call ptr @Hop_Remap(ptr noundef %85, ptr noundef %88, i32 noundef %89, i32 noundef %91)
  %93 = load ptr, ptr %10, align 8, !tbaa !19
  %94 = getelementptr inbounds nuw %struct.Nwk_Obj_t_, ptr %93, i32 0, i32 1
  store ptr %92, ptr %94, align 8, !tbaa !42
  %95 = load i32, ptr %7, align 4, !tbaa !17
  %96 = icmp ne i32 %95, 0
  br i1 %96, label %97, label %106

97:                                               ; preds = %82
  %98 = load ptr, ptr %5, align 8, !tbaa !19
  %99 = getelementptr inbounds nuw %struct.Nwk_Obj_t_, ptr %98, i32 0, i32 5
  %100 = load i32, ptr %99, align 4, !tbaa !43
  %101 = load ptr, ptr %5, align 8, !tbaa !19
  %102 = call i32 @Nwk_ObjFaninNum(ptr noundef %101)
  %103 = load ptr, ptr %10, align 8, !tbaa !19
  %104 = call i32 @Nwk_ObjFaninNum(ptr noundef %103)
  %105 = call i32 (ptr, ...) @printf(ptr noundef @.str.32, i32 noundef %100, i32 noundef %102, i32 noundef %104)
  br label %106

106:                                              ; preds = %97, %82
  %107 = load ptr, ptr %5, align 8, !tbaa !19
  %108 = load ptr, ptr %10, align 8, !tbaa !19
  call void @Nwk_ObjReplace(ptr noundef %107, ptr noundef %108)
  store i32 1, ptr %4, align 4
  store i32 1, ptr %16, align 4
  br label %109

109:                                              ; preds = %106, %39
  call void @llvm.lifetime.end.p0(i64 4, ptr %15) #9
  call void @llvm.lifetime.end.p0(i64 4, ptr %14) #9
  call void @llvm.lifetime.end.p0(i64 4, ptr %13) #9
  call void @llvm.lifetime.end.p0(i64 4, ptr %12) #9
  call void @llvm.lifetime.end.p0(i64 8, ptr %11) #9
  call void @llvm.lifetime.end.p0(i64 8, ptr %10) #9
  call void @llvm.lifetime.end.p0(i64 8, ptr %9) #9
  call void @llvm.lifetime.end.p0(i64 8, ptr %8) #9
  %110 = load i32, ptr %4, align 4
  ret i32 %110
}