; Function Attrs: nounwind uwtable
define range(i32 0, 2) i32 @Nwk_ManMinimumBaseNode(ptr noundef %0, ptr noundef %1, i32 noundef %2) local_unnamed_addr #3 {
  %4 = load ptr, ptr %0, align 8, !tbaa !32
  %5 = getelementptr inbounds nuw i8, ptr %4, i64 64
  %6 = load ptr, ptr %5, align 8, !tbaa !56
  %7 = getelementptr inbounds nuw i8, ptr %0, i64 8
  %8 = load ptr, ptr %7, align 8, !tbaa !37
  %9 = ptrtoint ptr %8 to i64
  %10 = and i64 %9, -2
  %11 = inttoptr i64 %10 to ptr
  %12 = getelementptr i8, ptr %0, i64 60
  %.val45 = load i32, ptr %12, align 4, !tbaa !28
  %13 = tail call ptr @Hop_ManConvertAigToTruth(ptr noundef %6, ptr noundef %11, i32 noundef %.val45, ptr noundef %1, i32 noundef 0) #17
  %.val44 = load i32, ptr %12, align 4, !tbaa !28
  %14 = tail call i32 @Kit_TruthSupportSize(ptr noundef %13, i32 noundef %.val44) #17
  %.val43 = load i32, ptr %12, align 4, !tbaa !28
  %15 = icmp eq i32 %14, %.val43
  br i1 %15, label %46, label %16

16:                                               ; preds = %3
  %17 = tail call i32 @Kit_TruthSupport(ptr noundef %13, i32 noundef %.val43) #17
  %18 = getelementptr i8, ptr %0, i64 64
  %.val46 = load i32, ptr %18, align 8, !tbaa !45
  %19 = tail call ptr @Nwk_ManCreateNode(ptr noundef nonnull %4, i32 noundef %14, i32 noundef %.val46) #17
  %20 = getelementptr inbounds nuw i8, ptr %0, i64 72
  %21 = load i32, ptr %12, align 4, !tbaa !28
  %22 = icmp sgt i32 %21, 0
  br i1 %22, label %.lr.ph, label %.critedge

.lr.ph:                                           ; preds = %16, %32
  %23 = phi i32 [ %33, %32 ], [ %21, %16 ]
  %indvars.iv = phi i64 [ %indvars.iv.next, %32 ], [ 0, %16 ]
  %24 = load ptr, ptr %20, align 8, !tbaa !43
  %25 = getelementptr inbounds nuw ptr, ptr %24, i64 %indvars.iv
  %26 = load ptr, ptr %25, align 8, !tbaa !40
  %.not = icmp eq ptr %26, null
  br i1 %.not, label %.critedge, label %27

27:                                               ; preds = %.lr.ph
  %28 = trunc nuw nsw i64 %indvars.iv to i32
  %29 = shl nuw i32 1, %28
  %30 = and i32 %29, %17
  %.not39 = icmp eq i32 %30, 0
  br i1 %.not39, label %32, label %31

31:                                               ; preds = %27
  tail call void @Nwk_ObjAddFanin(ptr noundef %19, ptr noundef nonnull %26) #17
  %.pre = load i32, ptr %12, align 4, !tbaa !28
  br label %32

32:                                               ; preds = %27, %31
  %33 = phi i32 [ %23, %27 ], [ %.pre, %31 ]
  %indvars.iv.next = add nuw nsw i64 %indvars.iv, 1
  %34 = sext i32 %33 to i64
  %35 = icmp slt i64 %indvars.iv.next, %34
  br i1 %35, label %.lr.ph, label %.critedge, !llvm.loop !68

.critedge:                                        ; preds = %.lr.ph, %32, %16
  %.lcssa = phi i32 [ %21, %16 ], [ %33, %32 ], [ %23, %.lr.ph ]
  %36 = load ptr, ptr %5, align 8, !tbaa !56
  %37 = load ptr, ptr %7, align 8, !tbaa !37
  %38 = tail call ptr @Hop_Remap(ptr noundef %36, ptr noundef %37, i32 noundef %17, i32 noundef %.lcssa) #17
  %39 = getelementptr inbounds nuw i8, ptr %19, i64 8
  store ptr %38, ptr %39, align 8, !tbaa !37
  %.not38 = icmp eq i32 %2, 0
  br i1 %.not38, label %45, label %40

40:                                               ; preds = %.critedge
  %41 = getelementptr inbounds nuw i8, ptr %0, i64 36
  %42 = load i32, ptr %41, align 4, !tbaa !38
  %.val40 = load i32, ptr %12, align 4, !tbaa !28
  %43 = getelementptr i8, ptr %19, i64 60
  %.val = load i32, ptr %43, align 4, !tbaa !28
  %44 = tail call i32 (ptr, ...) @printf(ptr noundef nonnull dereferenceable(1) @.str.32, i32 noundef %42, i32 noundef %.val40, i32 noundef %.val)
  br label %45

45:                                               ; preds = %40, %.critedge
  tail call void @Nwk_ObjReplace(ptr noundef nonnull %0, ptr noundef nonnull %19) #17
  br label %46

46:                                               ; preds = %3, %45
  %.035 = phi i32 [ 1, %45 ], [ 0, %3 ]
  ret i32 %.035
}